Certificate:
    Data:
        Version: 3 (0x2)
        Serial Number: 3371304046587445890 (0x2ec9472b1eae8282)
    Signature Algorithm: sha256WithRSAEncryption
        Issuer: C=US, O=Google Trust Services, CN=Google Internet Authority G3
        Validity
            Not Before: Jun 26 06:53:01 2018 GMT
            Not After : Sep  4 06:42:00 2018 GMT
        Subject: C=US, ST=California, L=Mountain View, O=Google LLC, CN=mail.google.com
        Subject Public Key Info:
            Public Key Algorithm: id-ecPublicKey
                Public-Key: (256 bit)
                pub:
                    04:b1:16:fa:7e:54:44:30:a2:36:ce:14:87:3b:df:
                    39:49:07:26:0c:24:58:95:5b:3f:f1:f2:77:a3:a6:
                    21:4b:b5:aa:88:94:f4:87:2c:25:91:f8:73:cf:85:
                    74:85:4c:6f:b2:b5:83:0a:61:c7:44:b2:d2:68:6c:
                    a0:46:0b:f4:45
                ASN1 OID: prime256v1
                NIST CURVE: P-256
        X509v3 extensions:
            X509v3 Extended Key Usage:
                TLS Web Server Authentication
            X509v3 Key Usage: critical
                Digital Signature
            X509v3 Subject Alternative Name:
                DNS:mail.google.com, DNS:inbox.google.com
            Authority Information Access:
                CA Issuers - URI:http://pki.goog/gsr2/GTSGIAG3.crt
                OCSP - URI:http://ocsp.pki.goog/GTSGIAG3

            X509v3 Subject Key Identifier:
                0B:C4:A3:3F:EC:3F:A8:9A:58:D0:1B:A2:53:0F:47:74:F0:64:4D:D8
            X509v3 Basic Constraints: critical
                CA:FALSE
            X509v3 Authority Key Identifier:
                keyid:77:C2:B8:50:9A:67:76:76:B1:2D:C2:86:D0:83:A0:7E:A6:7E:BA:4B

            X509v3 Certificate Policies:
                Policy: 1.3.6.1.4.1.11129.2.5.3
                Policy: 2.23.140.1.2.2

            X509v3 CRL Distribution Points:

                Full Name:
                  URI:http://crl.pki.goog/GTSGIAG3.crl

    Signature Algorithm: sha256WithRSAEncryption
         1e:4a:c1:ad:b0:87:08:2b:2e:af:77:b9:ab:12:55:1c:95:9a:
         b1:ba:08:02:95:94:16:b2:3c:06:03:aa:d6:65:eb:d1:75:73:
         de:f9:4e:55:ab:7d:09:f9:d6:40:ef:27:ff:7a:51:f7:2e:ed:
         d1:ac:0c:ea:ea:f2:1f:58:d3:64:47:4e:c5:57:d7:db:20:8a:
         39:f8:cd:72:05:b0:e8:6d:3d:93:9a:1d:e4:2d:11:c9:e5:c8:
         a0:2d:45:64:c1:17:77:c8:51:49:24:31:b8:6e:0d:96:33:d6:
         c0:02:23:00:c2:4f:5f:d0:a0:53:51:94:8b:43:52:21:3d:a1:
         9b:5a:78:bb:c6:cc:1e:2c:e1:bc:7a:99:9b:e6:94:e8:fb:41:
         e4:95:24:fe:32:45:c4:44:8b:1e:1b:d4:26:99:96:15:c2:cc:
         d6:60:25:3e:52:2f:3f:d8:99:95:94:65:44:db:64:bd:cf:0f:
         9c:54:28:65:98:89:7b:48:1e:4c:8e:6f:36:45:18:bd:65:fc:
         42:c5:39:35:3f:71:5a:18:00:c6:aa:f4:3d:b9:9b:a3:c5:26:
         aa:b1:25:b5:cf:bb:66:9a:14:29:0a:87:3a:c9:3b:99:71:ae:
         17:6f:6e:26:5e:c6:f5:32:26:22:af:cc:78:ba:ad:fe:9d:92:
         50:25:52:0e
-----BEGIN CERTIFICATE-----
MIID2zCCAsOgAwIBAgIILslHKx6ugoIwDQYJKoZIhvcNAQELBQAwVDELMAkGA1UE
BhMCVVMxHjAcBgNVBAoTFUdvb2dsZSBUcnVzdCBTZXJ2aWNlczElMCMGA1UEAxMc
R29vZ2xlIEludGVybmV0IEF1dGhvcml0eSBHMzAeFw0xODA2MjYwNjUzMDFaFw0x
ODA5MDQwNjQyMDBaMGkxCzAJBgNVBAYTAlVTMRMwEQYDVQQIDApDYWxpZm9ybmlh
MRYwFAYDVQQHDA1Nb3VudGFpbiBWaWV3MRMwEQYDVQQKDApHb29nbGUgTExDMRgw
FgYDVQQDDA9tYWlsLmdvb2dsZS5jb20wWTATBgcqhkjOPQIBBggqhkjOPQMBBwNC
AASxFvp+VEQwojbOFIc73zlJByYMJFiVWz/x8nejpiFLtaqIlPSHLCWR+HPPhXSF
TG+ytYMKYcdEstJobKBGC/RFo4IBZTCCAWEwEwYDVR0lBAwwCgYIKwYBBQUHAwEw
DgYDVR0PAQH/BAQDAgeAMCwGA1UdEQQlMCOCD21haWwuZ29vZ2xlLmNvbYIQaW5i
b3guZ29vZ2xlLmNvbTBoBggrBgEFBQcBAQRcMFowLQYIKwYBBQUHMAKGIWh0dHA6
Ly9wa2kuZ29vZy9nc3IyL0dUU0dJQUczLmNydDApBggrBgEFBQcwAYYdaHR0cDov
L29jc3AucGtpLmdvb2cvR1RTR0lBRzMwHQYDVR0OBBYEFAvEoz/sP6iaWNAbolMP
R3TwZE3YMAwGA1UdEwEB/wQCMAAwHwYDVR0jBBgwFoAUd8K4UJpndnaxLcKG0IOg
fqZ+ukswIQYDVR0gBBowGDAMBgorBgEEAdZ5AgUDMAgGBmeBDAECAjAxBgNVHR8E
KjAoMCagJKAihiBodHRwOi8vY3JsLnBraS5nb29nL0dUU0dJQUczLmNybDANBgkq
hkiG9w0BAQsFAAOCAQEAHkrBrbCHCCsur3e5qxJVHJWasboIApWUFrI8BgOq1mXr
0XVz3vlOVat9CfnWQO8n/3pR9y7t0awM6uryH1jTZEdOxVfX2yCKOfjNcgWw6G09
k5od5C0RyeXIoC1FZMEXd8hRSSQxuG4NljPWwAIjAMJPX9CgU1GUi0NSIT2hm1p4
u8bMHizhvHqZm+aU6PtB5JUk/jJFxESLHhvUJpmWFcLM1mAlPlIvP9iZlZRlRNtk
vc8PnFQoZZiJe0geTI5vNkUYvWX8QsU5NT9xWhgAxqr0Pbmbo8UmqrEltc+7ZpoU
KQqHOsk7mXGuF29uJl7G9TImIq/MeLqt/p2SUCVSDg==
-----END CERTIFICATE-----
