Certificate:
    Data:
        Version: 3 (0x2)
        Serial Number:
            40:e2:c1:ad:4e:2b:9c:9e:00:00:00:01
    Signature Algorithm: 1.3.6.1.4.1.12656.1.36
        Issuer: CN=\x04\x1A\x04>\x04@\x04=\x045\x042\x04>\x049\x00 \x04C\x044\x04>\x04A\x04B\x04>\x042\x045\x04@\x04O\x04N\x04I\x048\x049\x00 \x04F\x045\x04=\x04B\x04@, O=\x04\x1C\x048\x04=\x048\x04A\x04B\x045\x04@\x04A\x04B\x042\x04>\x00 \x04?\x04>\x00 \x04=\x040\x04;\x04>\x043\x040\x04<\x00 \x048\x00 \x04A\x041\x04>\x04@\x040\x04<\x00 \x04 \x04\x11, C=BY, ST=\x04\x1C\x048\x04=\x04A\x04:\x040\x04O, L=\x043\x00.\x00 \x04\x1C\x048\x04=\x04A\x04:/street=\x04C\x04;\x00.\x00 \x04!\x04>\x042\x045\x04B\x04A\x04:\x040\x04O\x00 \x009, OU=\x04\x1E\x04B\x044\x045\x04;\x00 \x048\x04=\x04D\x04>\x04@\x04<\x040\x04F\x048\x04>\x04=\x04=\x04>\x049\x00 \x041\x045\x047\x04>\x04?\x040\x04A\x04=\x04>\x04A\x04B\x048\x00 \x048\x00 \x04A\x04?\x045\x04F\x04@\x040\x041\x04>\x04B\x04K
        Validity
            Not Before: Mar  2 07:57:35 2005 GMT
            Not After : Dec 26 21:59:59 2019 GMT
        Subject: CN=\x04 \x040\x041\x04>\x04G\x048\x049\x00 \x04C\x044\x04>\x04A\x04B\x04>\x042\x045\x04@\x04O\x04N\x04I\x048\x049\x00 \x04F\x045\x04=\x04B\x04@\x00 \x04-\x04!\x00 \x04\x1D\x04\x14\x04!, O=\x04\x1C\x048\x04=\x048\x04A\x04B\x045\x04@\x04A\x04B\x042\x04>\x00 \x04?\x04>\x00 \x04=\x040\x04;\x04>\x043\x040\x04<\x00 \x048\x00 \x04A\x041\x04>\x04@\x040\x04<\x00 \x04 \x04\x11, C=BY, ST=\x04\x1C\x048\x04=\x04A\x04:\x040\x04O, L=\x043\x00.\x00 \x04\x1C\x048\x04=\x04A\x04:/street=\x04C\x04;\x00.\x00 \x04!\x04>\x042\x045\x04B\x04A\x04:\x040\x04O\x00 \x009, OU=\x04\x1E\x04B\x044\x045\x04;\x00 \x048\x04=\x04D\x04>\x04@\x04<\x040\x04F\x048\x04>\x04=\x04=\x04>\x049\x00 \x041\x045\x047\x04>\x04?\x040\x04A\x04=\x04>\x04A\x04B\x048\x00 \x048\x00 \x04A\x04?\x045\x04F\x04@\x040\x041\x04>\x04B\x04K
        Subject Public Key Info:
            Public Key Algorithm: 1.3.6.1.4.1.12656.1.37
            Unable to load Public Key
140735846486984:error:0609E09C:digital envelope routines:PKEY_SET_TYPE:unsupported algorithm:/BuildRoot/Library/Caches/com.apple.xbs/Sources/libressl/libressl-22.50.2/libressl/crypto/evp/p_lib.c:243:
140735846486984:error:0B07706F:x509 certificate routines:X509_PUBKEY_get:unsupported algorithm:/BuildRoot/Library/Caches/com.apple.xbs/Sources/libressl/libressl-22.50.2/libressl/crypto/asn1/x_pubkey.c:201:
        X509v3 extensions:
            2.5.29.1:
                0.....u.Z......l6Ji.[(S..d...k0..g1C0A..U...:...>.@.=.5.2.>.9. .C.4.>.A.B.>.2.5.@.O.N.I.8.9. .F.5.=.B.@1O0M..U.
.F...8.=.8.A.B.5.@.A.B.2.>. .?.>. .=.0.;.>.3.0.<. .8. .A.1.>.@.0.<. . ..1.0...U....BY1.0...U.......8.=.A.:.0.O1.0...U.....3... ...8.=.A.:1'0%..U.....C.;... .!.>.2.5.B.A.:.0.O. .91e0c..U...\...B.4.5.;. .8.=.D.>.@.<.0.F.8.>.=.=.>.9. .1.5.7.>.?.0.A.=.>.A.B.8. .8. .A.?.5.F.@.0.1.>.B.K..@..n..x.....
            X509v3 Basic Constraints:
                CA:TRUE
            X509v3 Key Usage:
                Digital Signature, Key Encipherment, Data Encipherment, Key Agreement, Certificate Sign, CRL Sign
            X509v3 Subject Key Identifier:
                15:33:5D:E6:83:FA:3A:D8:D4:BB:AF:9D:A2:34:36:C1:4D:5F:68:37
            2.5.29.2:
                0$0"..20050302075237Z..20200301215959Z
            1.3.6.1.4.1.12656.5.4:
                0$0"..20050302075237Z..20200302075237Z
    Signature Algorithm: 1.3.6.1.4.1.12656.1.36
         00:c2:6d:f9:0d:61:02:2e:90:3a:50:a8:3f:2b:67:0c:f8:0f:
         b9:08:08:55:4a:0e:8e:bb:74:66:ef:c0:70:d8:35:3f:58:b0:
         08:2f:d5:2d:e4:15:f1:31
-----BEGIN CERTIFICATE-----
MIIG+zCCBrmgAwIBAgIMQOLBrU4rnJ4AAAABMA0GCSsGAQQB4nABJAUAMIIBZzFD
MEEGA1UEAx46BBoEPgRABD0ENQQyBD4EOQAgBEMENAQ+BEEEQgQ+BDIENQRABE8E
TgRJBDgEOQAgBEYENQQ9BEIEQDFPME0GA1UECh5GBBwEOAQ9BDgEQQRCBDUEQARB
BEIEMgQ+ACAEPwQ+ACAEPQQwBDsEPgQzBDAEPAAgBDgAIARBBDEEPgRABDAEPAAg
BCAEETELMAkGA1UEBhMCQlkxFzAVBgNVBAgeDgQcBDgEPQRBBDoEMARPMRkwFwYD
VQQHHhAEMwAuACAEHAQ4BD0EQQQ6MScwJQYDVQQJHh4EQwQ7AC4AIAQhBD4EMgQ1
BEIEQQQ6BDAETwAgADkxZTBjBgNVBAseXAQeBEIENAQ1BDsAIAQ4BD0ERAQ+BEAE
PAQwBEYEOAQ+BD0EPQQ+BDkAIAQxBDUENwQ+BD8EMARBBD0EPgRBBEIEOAAgBDgA
IARBBD8ENQRGBEAEMAQxBD4EQgRLMB4XDTA1MDMwMjA3NTczNVoXDTE5MTIyNjIx
NTk1OVowggFzMU8wTQYDVQQDHkYEIAQwBDEEPgRHBDgEOQAgBEMENAQ+BEEEQgQ+
BDIENQRABE8ETgRJBDgEOQAgBEYENQQ9BEIEQAAgBC0EIQAgBB0EFAQhMU8wTQYD
VQQKHkYEHAQ4BD0EOARBBEIENQRABEEEQgQyBD4AIAQ/BD4AIAQ9BDAEOwQ+BDME
MAQ8ACAEOAAgBEEEMQQ+BEAEMAQ8ACAEIAQRMQswCQYDVQQGEwJCWTEXMBUGA1UE
CB4OBBwEOAQ9BEEEOgQwBE8xGTAXBgNVBAceEAQzAC4AIAQcBDgEPQRBBDoxJzAl
BgNVBAkeHgRDBDsALgAgBCEEPgQyBDUEQgRBBDoEMARPACAAOTFlMGMGA1UECx5c
BB4EQgQ0BDUEOwAgBDgEPQREBD4EQAQ8BDAERgQ4BD4EPQQ9BD4EOQAgBDEENQQ3
BD4EPwQwBEEEPQQ+BEEEQgQ4ACAEOAAgBEEEPwQ1BEYEQAQwBDEEPgRCBEswggFH
MBgGCSsGAQQB4nABJaALBgkrBgEEAeJwBwIDggEpADCCASQwgY8GCSsGAQQB4nAB
IwOBgQIgnKcPDRSTomXSuwQJ7yMjUrOOjtf/yaw9V2yNyYtyA3+AlegUGPu9zZ1d
1np3aJp0tRSMv5qecXEVnrOUa2p+rjEVMwjZVvozNx1AXMQa/xd51HVHuVv1KBsk
QZa06HZdtAiOvV/gD7AHp5wa9w86Uq7xriQyO0K1v4Bgus4yIDCBjwYJKwYBBAHi
cAEgA4GBAm5uALAHoV/3tYkmGK1rFjVJ3Bq8Jxe8Kdyjp4MKOz8ckQIMv4+yYvfD
23+6eOeUYxMAa9xE28g/tiA5DTTmDJkbdJwJ54f5LX2TydaJUN6b5GVcNqY5K9O8
7SCthJAKGkiA3J256e61PZfnyH5AG3VUrg228zktNjjXZPq0bEeQo4ICRjCCAkIw
ggGgBgNVHQEEggGXMIIBk4AUdZBaC5y7iZqsbDZKaaBbKFOoGWShggFrMIIBZzFD
MEEGA1UEAx46BBoEPgRABD0ENQQyBD4EOQAgBEMENAQ+BEEEQgQ+BDIENQRABE8E
TgRJBDgEOQAgBEYENQQ9BEIEQDFPME0GA1UECh5GBBwEOAQ9BDgEQQRCBDUEQARB
BEIEMgQ+ACAEPwQ+ACAEPQQwBDsEPgQzBDAEPAAgBDgAIARBBDEEPgRABDAEPAAg
BCAEETELMAkGA1UEBhMCQlkxFzAVBgNVBAgeDgQcBDgEPQRBBDoEMARPMRkwFwYD
VQQHHhAEMwAuACAEHAQ4BD0EQQQ6MScwJQYDVQQJHh4EQwQ7AC4AIAQhBD4EMgQ1
BEIEQQQ6BDAETwAgADkxZTBjBgNVBAseXAQeBEIENAQ1BDsAIAQ4BD0ERAQ+BEAE
PAQwBEYEOAQ+BD0EPQQ+BDkAIAQxBDUENwQ+BD8EMARBBD0EPgRBBEIEOAAgBDgA
IARBBD8ENQRGBEAEMAQxBD4EQgRLggxA4r1ukxR4jQAAAAEwDAYDVR0TBAUwAwEB
/zALBgNVHQ8EBAMCAb4wHQYDVR0OBBYEFBUzXeaD+jrY1LuvnaI0NsFNX2g3MC0G
A1UdAgQmMCQwIoAPMjAwNTAzMDIwNzUyMzdagQ8yMDIwMDMwMTIxNTk1OVowMwYJ
KwYBBAHicAUEBCYwJDAigA8yMDA1MDMwMjA3NTIzN1qBDzIwMjAwMzAyMDc1MjM3
WjANBgkrBgEEAeJwASQFAAMtAADCbfkNYQIukDpQqD8rZwz4D7kICFVKDo67dGbv
wHDYNT9YsAgv1S3kFfEx
-----END CERTIFICATE-----
